; ModuleID = 'bench/openssl/original/ui_null.ll'
source_filename = "bench/openssl/original/ui_null.ll"
target datalayout = "e-m:e-p270:32:32-p271:32:32-p272:64:64-i64:64-i128:128-f80:128-n8:16:32:64-S128"
target triple = "x86_64-pc-linux-gnu"

%struct.ui_method_st = type { ptr, ptr, ptr, ptr, ptr, ptr, ptr, ptr, ptr, %struct.crypto_ex_data_st }
%struct.crypto_ex_data_st = type { ptr, ptr }

@ui_null = internal constant %struct.ui_method_st { ptr @.str, ptr null, ptr null, ptr null, ptr null, ptr null, ptr null, ptr null, ptr null, %struct.crypto_ex_data_st zeroinitializer }, align 8
@.str = private unnamed_addr constant [16 x i8] c"OpenSSL NULL UI\00", align 1

; Function Attrs: mustprogress nofree norecurse nosync nounwind willreturn memory(none) uwtable
define noundef nonnull ptr @UI_null() local_unnamed_addr #0 {
  ret ptr @ui_null
}


!llvm.module.flags = !{!0, !1, !2}

!0 = !{i32 1, !"wchar_size", i32 4}
!1 = !{i32 8, !"PIC Level", i32 2}
!2 = !{i32 7, !"uwtable", i32 2}
